; ModuleID = '27/2008.c'
source_filename = "27/2008.c"
target datalayout = "e-m:e-p270:32:32-p271:32:32-p272:64:64-i64:64-f80:128-n8:16:32:64-S128"
target triple = "x86_64-pc-linux-gnu"

@.str = private unnamed_addr constant [3 x i8] c"%d\00", align 1
@.str.1 = private unnamed_addr constant [12 x i8] c"%lf %lf %lf\00", align 1
@.str.2 = private unnamed_addr constant [19 x i8] c"x1=%.5lf;x2=%.5lf\0A\00", align 1
@.str.3 = private unnamed_addr constant [13 x i8] c"x1=x2=%.5lf\0A\00", align 1
@.str.4 = private unnamed_addr constant [39 x i8] c"x1=-0.00000+%.5lfi;x2=-0.00000-%.5lfi\0A\00", align 1
@.str.5 = private unnamed_addr constant [33 x i8] c"x1=%.5lf+%.5lfi;x2=%.5lf-%.5lfi\0A\00", align 1

; Function Attrs: noinline nounwind uwtable
define dso_local i32 @main(i32 %0, i8** %1) #0 {
  %3 = alloca i32, align 4
  %4 = alloca i32, align 4
  %5 = alloca i8**, align 8
  %6 = alloca i32, align 4
  %7 = alloca i32, align 4
  %8 = alloca [1000 x double], align 16
  %9 = alloca [1000 x double], align 16
  %10 = alloca [1000 x double], align 16
  %11 = alloca double, align 8
  %12 = alloca double, align 8
  %13 = alloca double, align 8
  %14 = alloca double, align 8
  store i32 0, i32* %3, align 4
  store i32 %0, i32* %4, align 4
  store i8** %1, i8*** %5, align 8
  %15 = call i32 (i8*, ...) @__isoc99_scanf(i8* getelementptr inbounds ([3 x i8], [3 x i8]* @.str, i64 0, i64 0), i32* %6)
  store i32 0, i32* %7, align 4
  br label %16

16:                                               ; preds = %212, %2
  %17 = load i32, i32* %7, align 4
  %18 = load i32, i32* %6, align 4
  %19 = icmp slt i32 %17, %18
  br i1 %19, label %20, label %215

20:                                               ; preds = %16
  %21 = load i32, i32* %7, align 4
  %22 = sext i32 %21 to i64
  %23 = getelementptr inbounds [1000 x double], [1000 x double]* %8, i64 0, i64 %22
  %24 = load i32, i32* %7, align 4
  %25 = sext i32 %24 to i64
  %26 = getelementptr inbounds [1000 x double], [1000 x double]* %9, i64 0, i64 %25
  %27 = load i32, i32* %7, align 4
  %28 = sext i32 %27 to i64
  %29 = getelementptr inbounds [1000 x double], [1000 x double]* %10, i64 0, i64 %28
  %30 = call i32 (i8*, ...) @__isoc99_scanf(i8* getelementptr inbounds ([12 x i8], [12 x i8]* @.str.1, i64 0, i64 0), double* %23, double* %26, double* %29)
  %31 = load i32, i32* %7, align 4
  %32 = sext i32 %31 to i64
  %33 = getelementptr inbounds [1000 x double], [1000 x double]* %9, i64 0, i64 %32
  %34 = load double, double* %33, align 8
  %35 = load i32, i32* %7, align 4
  %36 = sext i32 %35 to i64
  %37 = getelementptr inbounds [1000 x double], [1000 x double]* %9, i64 0, i64 %36
  %38 = load double, double* %37, align 8
  %39 = fmul double %34, %38
  %40 = load i32, i32* %7, align 4
  %41 = sext i32 %40 to i64
  %42 = getelementptr inbounds [1000 x double], [1000 x double]* %8, i64 0, i64 %41
  %43 = load double, double* %42, align 8
  %44 = fmul double 4.000000e+00, %43
  %45 = load i32, i32* %7, align 4
  %46 = sext i32 %45 to i64
  %47 = getelementptr inbounds [1000 x double], [1000 x double]* %10, i64 0, i64 %46
  %48 = load double, double* %47, align 8
  %49 = fmul double %44, %48
  %50 = fsub double %39, %49
  %51 = fcmp ogt double %50, 0.000000e+00
  br i1 %51, label %52, label %122

52:                                               ; preds = %20
  %53 = load i32, i32* %7, align 4
  %54 = sext i32 %53 to i64
  %55 = getelementptr inbounds [1000 x double], [1000 x double]* %9, i64 0, i64 %54
  %56 = load double, double* %55, align 8
  %57 = fneg double %56
  %58 = load i32, i32* %7, align 4
  %59 = sext i32 %58 to i64
  %60 = getelementptr inbounds [1000 x double], [1000 x double]* %9, i64 0, i64 %59
  %61 = load double, double* %60, align 8
  %62 = load i32, i32* %7, align 4
  %63 = sext i32 %62 to i64
  %64 = getelementptr inbounds [1000 x double], [1000 x double]* %9, i64 0, i64 %63
  %65 = load double, double* %64, align 8
  %66 = fmul double %61, %65
  %67 = load i32, i32* %7, align 4
  %68 = sext i32 %67 to i64
  %69 = getelementptr inbounds [1000 x double], [1000 x double]* %8, i64 0, i64 %68
  %70 = load double, double* %69, align 8
  %71 = fmul double 4.000000e+00, %70
  %72 = load i32, i32* %7, align 4
  %73 = sext i32 %72 to i64
  %74 = getelementptr inbounds [1000 x double], [1000 x double]* %10, i64 0, i64 %73
  %75 = load double, double* %74, align 8
  %76 = fmul double %71, %75
  %77 = fsub double %66, %76
  %78 = call double @sqrt(double %77) #3
  %79 = fadd double %57, %78
  %80 = load i32, i32* %7, align 4
  %81 = sext i32 %80 to i64
  %82 = getelementptr inbounds [1000 x double], [1000 x double]* %8, i64 0, i64 %81
  %83 = load double, double* %82, align 8
  %84 = fmul double 2.000000e+00, %83
  %85 = fdiv double %79, %84
  store double %85, double* %11, align 8
  %86 = load i32, i32* %7, align 4
  %87 = sext i32 %86 to i64
  %88 = getelementptr inbounds [1000 x double], [1000 x double]* %9, i64 0, i64 %87
  %89 = load double, double* %88, align 8
  %90 = fneg double %89
  %91 = load i32, i32* %7, align 4
  %92 = sext i32 %91 to i64
  %93 = getelementptr inbounds [1000 x double], [1000 x double]* %9, i64 0, i64 %92
  %94 = load double, double* %93, align 8
  %95 = load i32, i32* %7, align 4
  %96 = sext i32 %95 to i64
  %97 = getelementptr inbounds [1000 x double], [1000 x double]* %9, i64 0, i64 %96
  %98 = load double, double* %97, align 8
  %99 = fmul double %94, %98
  %100 = load i32, i32* %7, align 4
  %101 = sext i32 %100 to i64
  %102 = getelementptr inbounds [1000 x double], [1000 x double]* %8, i64 0, i64 %101
  %103 = load double, double* %102, align 8
  %104 = fmul double 4.000000e+00, %103
  %105 = load i32, i32* %7, align 4
  %106 = sext i32 %105 to i64
  %107 = getelementptr inbounds [1000 x double], [1000 x double]* %10, i64 0, i64 %106
  %108 = load double, double* %107, align 8
  %109 = fmul double %104, %108
  %110 = fsub double %99, %109
  %111 = call double @sqrt(double %110) #3
  %112 = fsub double %90, %111
  %113 = load i32, i32* %7, align 4
  %114 = sext i32 %113 to i64
  %115 = getelementptr inbounds [1000 x double], [1000 x double]* %8, i64 0, i64 %114
  %116 = load double, double* %115, align 8
  %117 = fmul double 2.000000e+00, %116
  %118 = fdiv double %112, %117
  store double %118, double* %12, align 8
  %119 = load double, double* %11, align 8
  %120 = load double, double* %12, align 8
  %121 = call i32 (i8*, ...) @printf(i8* getelementptr inbounds ([19 x i8], [19 x i8]* @.str.2, i64 0, i64 0), double %119, double %120)
  br label %211

122:                                              ; preds = %20
  %123 = load i32, i32* %7, align 4
  %124 = sext i32 %123 to i64
  %125 = getelementptr inbounds [1000 x double], [1000 x double]* %9, i64 0, i64 %124
  %126 = load double, double* %125, align 8
  %127 = load i32, i32* %7, align 4
  %128 = sext i32 %127 to i64
  %129 = getelementptr inbounds [1000 x double], [1000 x double]* %9, i64 0, i64 %128
  %130 = load double, double* %129, align 8
  %131 = fmul double %126, %130
  %132 = load i32, i32* %7, align 4
  %133 = sext i32 %132 to i64
  %134 = getelementptr inbounds [1000 x double], [1000 x double]* %8, i64 0, i64 %133
  %135 = load double, double* %134, align 8
  %136 = fmul double 4.000000e+00, %135
  %137 = load i32, i32* %7, align 4
  %138 = sext i32 %137 to i64
  %139 = getelementptr inbounds [1000 x double], [1000 x double]* %10, i64 0, i64 %138
  %140 = load double, double* %139, align 8
  %141 = fmul double %136, %140
  %142 = fsub double %131, %141
  %143 = fcmp oeq double %142, 0.000000e+00
  br i1 %143, label %144, label %158

144:                                              ; preds = %122
  %145 = load i32, i32* %7, align 4
  %146 = sext i32 %145 to i64
  %147 = getelementptr inbounds [1000 x double], [1000 x double]* %9, i64 0, i64 %146
  %148 = load double, double* %147, align 8
  %149 = fneg double %148
  %150 = load i32, i32* %7, align 4
  %151 = sext i32 %150 to i64
  %152 = getelementptr inbounds [1000 x double], [1000 x double]* %8, i64 0, i64 %151
  %153 = load double, double* %152, align 8
  %154 = fmul double 2.000000e+00, %153
  %155 = fdiv double %149, %154
  store double %155, double* %11, align 8
  %156 = load double, double* %11, align 8
  %157 = call i32 (i8*, ...) @printf(i8* getelementptr inbounds ([13 x i8], [13 x i8]* @.str.3, i64 0, i64 0), double %156)
  br label %210

158:                                              ; preds = %122
  %159 = load i32, i32* %7, align 4
  %160 = sext i32 %159 to i64
  %161 = getelementptr inbounds [1000 x double], [1000 x double]* %9, i64 0, i64 %160
  %162 = load double, double* %161, align 8
  %163 = fneg double %162
  %164 = load i32, i32* %7, align 4
  %165 = sext i32 %164 to i64
  %166 = getelementptr inbounds [1000 x double], [1000 x double]* %8, i64 0, i64 %165
  %167 = load double, double* %166, align 8
  %168 = fmul double 2.000000e+00, %167
  %169 = fdiv double %163, %168
  store double %169, double* %13, align 8
  %170 = load i32, i32* %7, align 4
  %171 = sext i32 %170 to i64
  %172 = getelementptr inbounds [1000 x double], [1000 x double]* %8, i64 0, i64 %171
  %173 = load double, double* %172, align 8
  %174 = fmul double 4.000000e+00, %173
  %175 = load i32, i32* %7, align 4
  %176 = sext i32 %175 to i64
  %177 = getelementptr inbounds [1000 x double], [1000 x double]* %10, i64 0, i64 %176
  %178 = load double, double* %177, align 8
  %179 = fmul double %174, %178
  %180 = load i32, i32* %7, align 4
  %181 = sext i32 %180 to i64
  %182 = getelementptr inbounds [1000 x double], [1000 x double]* %9, i64 0, i64 %181
  %183 = load double, double* %182, align 8
  %184 = load i32, i32* %7, align 4
  %185 = sext i32 %184 to i64
  %186 = getelementptr inbounds [1000 x double], [1000 x double]* %9, i64 0, i64 %185
  %187 = load double, double* %186, align 8
  %188 = fmul double %183, %187
  %189 = fsub double %179, %188
  %190 = call double @sqrt(double %189) #3
  %191 = load i32, i32* %7, align 4
  %192 = sext i32 %191 to i64
  %193 = getelementptr inbounds [1000 x double], [1000 x double]* %8, i64 0, i64 %192
  %194 = load double, double* %193, align 8
  %195 = fmul double 2.000000e+00, %194
  %196 = fdiv double %190, %195
  store double %196, double* %14, align 8
  %197 = load double, double* %13, align 8
  %198 = fcmp oeq double %197, 0.000000e+00
  br i1 %198, label %199, label %203

199:                                              ; preds = %158
  %200 = load double, double* %14, align 8
  %201 = load double, double* %14, align 8
  %202 = call i32 (i8*, ...) @printf(i8* getelementptr inbounds ([39 x i8], [39 x i8]* @.str.4, i64 0, i64 0), double %200, double %201)
  br label %209

203:                                              ; preds = %158
  %204 = load double, double* %13, align 8
  %205 = load double, double* %14, align 8
  %206 = load double, double* %13, align 8
  %207 = load double, double* %14, align 8
  %208 = call i32 (i8*, ...) @printf(i8* getelementptr inbounds ([33 x i8], [33 x i8]* @.str.5, i64 0, i64 0), double %204, double %205, double %206, double %207)
  br label %209

209:                                              ; preds = %203, %199
  br label %210

210:                                              ; preds = %209, %144
  br label %211

211:                                              ; preds = %210, %52
  br label %212

212:                                              ; preds = %211
  %213 = load i32, i32* %7, align 4
  %214 = add nsw i32 %213, 1
  store i32 %214, i32* %7, align 4
  br label %16

215:                                              ; preds = %16
  ret i32 0
}

declare dso_local i32 @__isoc99_scanf(i8*, ...) #1

; Function Attrs: nounwind
declare dso_local double @sqrt(double) #2

declare dso_local i32 @printf(i8*, ...) #1


!llvm.module.flags = !{!0}
!llvm.ident = !{!1}

!0 = !{i32 1, !"wchar_size", i32 4}
!1 = !{!"clang version 10.0.0-4ubuntu1 "}
