; ModuleID = 'source-C-CXX/26/2008.c'
source_filename = "source-C-CXX/26/2008.c"
target datalayout = "e-m:e-p270:32:32-p271:32:32-p272:64:64-i64:64-f80:128-n8:16:32:64-S128"
target triple = "x86_64-pc-linux-gnu"

@.str = private unnamed_addr constant [3 x i8] c"%d\00", align 1
@.str.1 = private unnamed_addr constant [12 x i8] c"%lf %lf %lf\00", align 1
@.str.2 = private unnamed_addr constant [19 x i8] c"x1=%.5lf;x2=%.5lf\0A\00", align 1
@.str.3 = private unnamed_addr constant [13 x i8] c"x1=x2=%.5lf\0A\00", align 1
@.str.4 = private unnamed_addr constant [39 x i8] c"x1=-0.00000+%.5lfi;x2=-0.00000-%.5lfi\0A\00", align 1
@.str.5 = private unnamed_addr constant [33 x i8] c"x1=%.5lf+%.5lfi;x2=%.5lf-%.5lfi\0A\00", align 1

; Function Attrs: nofree nounwind sspstrong uwtable
define dso_local i32 @main(i32 %0, i8** nocapture readnone %1) local_unnamed_addr #0 {
  %3 = alloca i32, align 4
  %4 = alloca [1000 x double], align 16
  %5 = alloca [1000 x double], align 16
  %6 = alloca [1000 x double], align 16
  %7 = bitcast i32* %3 to i8*
  call void @llvm.lifetime.start.p0i8(i64 4, i8* nonnull %7) #4
  %8 = bitcast [1000 x double]* %4 to i8*
  call void @llvm.lifetime.start.p0i8(i64 8000, i8* nonnull %8) #4
  %9 = bitcast [1000 x double]* %5 to i8*
  call void @llvm.lifetime.start.p0i8(i64 8000, i8* nonnull %9) #4
  %10 = bitcast [1000 x double]* %6 to i8*
  call void @llvm.lifetime.start.p0i8(i64 8000, i8* nonnull %10) #4
  %11 = call i32 (i8*, ...) @__isoc99_scanf(i8* getelementptr inbounds ([3 x i8], [3 x i8]* @.str, i64 0, i64 0), i32* nonnull %3)
  %12 = load i32, i32* %3, align 4, !tbaa !5
  %13 = icmp sgt i32 %12, 0
  br i1 %13, label %14, label %70

14:                                               ; preds = %2, %65
  %15 = phi i64 [ %66, %65 ], [ 0, %2 ]
  %16 = getelementptr inbounds [1000 x double], [1000 x double]* %4, i64 0, i64 %15
  %17 = getelementptr inbounds [1000 x double], [1000 x double]* %5, i64 0, i64 %15
  %18 = getelementptr inbounds [1000 x double], [1000 x double]* %6, i64 0, i64 %15
  %19 = call i32 (i8*, ...) @__isoc99_scanf(i8* getelementptr inbounds ([12 x i8], [12 x i8]* @.str.1, i64 0, i64 0), double* nonnull %16, double* nonnull %17, double* nonnull %18)
  %20 = load double, double* %17, align 8, !tbaa !9
  %21 = fmul double %20, %20
  %22 = load double, double* %16, align 8, !tbaa !9
  %23 = fmul double %22, 4.000000e+00
  %24 = load double, double* %18, align 8, !tbaa !9
  %25 = fmul double %23, %24
  %26 = fsub double %21, %25
  %27 = fcmp ogt double %26, 0.000000e+00
  br i1 %27, label %28, label %47

28:                                               ; preds = %14
  %29 = call double @sqrt(double %26) #4
  %30 = fsub double %29, %20
  %31 = load double, double* %16, align 8, !tbaa !9
  %32 = fmul double %31, 2.000000e+00
  %33 = fdiv double %30, %32
  %34 = load double, double* %17, align 8, !tbaa !9
  %35 = fneg double %34
  %36 = fmul double %34, %34
  %37 = fmul double %31, 4.000000e+00
  %38 = load double, double* %18, align 8, !tbaa !9
  %39 = fmul double %37, %38
  %40 = fsub double %36, %39
  %41 = call double @sqrt(double %40) #4
  %42 = fsub double %35, %41
  %43 = load double, double* %16, align 8, !tbaa !9
  %44 = fmul double %43, 2.000000e+00
  %45 = fdiv double %42, %44
  %46 = call i32 (i8*, ...) @printf(i8* nonnull dereferenceable(1) getelementptr inbounds ([19 x i8], [19 x i8]* @.str.2, i64 0, i64 0), double %33, double %45)
  br label %65

47:                                               ; preds = %14
  %48 = fcmp oeq double %26, 0.000000e+00
  %49 = fneg double %20
  %50 = fmul double %22, 2.000000e+00
  %51 = fdiv double %49, %50
  br i1 %48, label %52, label %54

52:                                               ; preds = %47
  %53 = call i32 (i8*, ...) @printf(i8* nonnull dereferenceable(1) getelementptr inbounds ([13 x i8], [13 x i8]* @.str.3, i64 0, i64 0), double %51)
  br label %65

54:                                               ; preds = %47
  %55 = fsub double %25, %21
  %56 = call double @sqrt(double %55) #4
  %57 = load double, double* %16, align 8, !tbaa !9
  %58 = fmul double %57, 2.000000e+00
  %59 = fdiv double %56, %58
  %60 = fcmp oeq double %51, 0.000000e+00
  br i1 %60, label %61, label %63

61:                                               ; preds = %54
  %62 = call i32 (i8*, ...) @printf(i8* nonnull dereferenceable(1) getelementptr inbounds ([39 x i8], [39 x i8]* @.str.4, i64 0, i64 0), double %59, double %59)
  br label %65

63:                                               ; preds = %54
  %64 = call i32 (i8*, ...) @printf(i8* nonnull dereferenceable(1) getelementptr inbounds ([33 x i8], [33 x i8]* @.str.5, i64 0, i64 0), double %51, double %59, double %51, double %59)
  br label %65

65:                                               ; preds = %28, %61, %63, %52
  %66 = add nuw nsw i64 %15, 1
  %67 = load i32, i32* %3, align 4, !tbaa !5
  %68 = sext i32 %67 to i64
  %69 = icmp slt i64 %66, %68
  br i1 %69, label %14, label %70, !llvm.loop !11

70:                                               ; preds = %65, %2
  call void @llvm.lifetime.end.p0i8(i64 8000, i8* nonnull %10) #4
  call void @llvm.lifetime.end.p0i8(i64 8000, i8* nonnull %9) #4
  call void @llvm.lifetime.end.p0i8(i64 8000, i8* nonnull %8) #4
  call void @llvm.lifetime.end.p0i8(i64 4, i8* nonnull %7) #4
  ret i32 0
}

; Function Attrs: argmemonly mustprogress nofree nosync nounwind willreturn
declare void @llvm.lifetime.start.p0i8(i64 immarg, i8* nocapture) #1

; Function Attrs: nofree nounwind
declare noundef i32 @__isoc99_scanf(i8* nocapture noundef readonly, ...) local_unnamed_addr #2

; Function Attrs: mustprogress nofree nounwind willreturn
declare double @sqrt(double) local_unnamed_addr #3

; Function Attrs: nofree nounwind
declare noundef i32 @printf(i8* nocapture noundef readonly, ...) local_unnamed_addr #2

; Function Attrs: argmemonly mustprogress nofree nosync nounwind willreturn
declare void @llvm.lifetime.end.p0i8(i64 immarg, i8* nocapture) #1


!llvm.module.flags = !{!0, !1, !2, !3}
!llvm.ident = !{!4}

!0 = !{i32 1, !"wchar_size", i32 4}
!1 = !{i32 7, !"PIC Level", i32 2}
!2 = !{i32 7, !"PIE Level", i32 2}
!3 = !{i32 7, !"uwtable", i32 1}
!4 = !{!"clang version 13.0.0"}
!5 = !{!6, !6, i64 0}
!6 = !{!"int", !7, i64 0}
!7 = !{!"omnipotent char", !8, i64 0}
!8 = !{!"Simple C/C++ TBAA"}
!9 = !{!10, !10, i64 0}
!10 = !{!"double", !7, i64 0}
!11 = distinct !{!11, !12}
!12 = !{!"llvm.loop.mustprogress"}
